target datalayout = "e-m:e-p270:32:32-p271:32:32-p272:64:64-i64:64-i128:128-f80:128-n8:16:32:64-S128"
target triple = "x86_64-pc-linux-gnu"

%struct.except_stacknode = type { ptr, i32, %union.anon }
%union.anon = type { ptr }
%struct.except_cleanup = type { ptr, ptr }
%struct._packet_info = type { ptr, ptr, i32, i32, %struct.nstime_t, %struct.nstime_t, %struct.nstime_t, i8, ptr, ptr, ptr, ptr, %struct._address, %struct._address, %struct._address, %struct._address, %struct._address, %struct._address, i32, ptr, i8, [3 x i8], %struct.anon, i32, i32, i32, i32, ptr, i8, ptr, ptr, i16, i16, i32, i32, i16, i32, i32, ptr, ptr, ptr, i8, i8, i16, i16, i16, i32, i16, i16, ptr, ptr, ptr, ptr, ptr, i32, i32 }
%struct.nstime_t = type { i64, i32 }
%struct._address = type { i32, i32, ptr, ptr }
%struct.anon = type { i8, [3 x i8] }
%struct.wscbor_chunk_t = type { ptr, i32, i32, i32, ptr, ptr, i32, i8, i64 }

@proto_cose = internal global i32 0, align 4
@table_keyparam = internal global ptr null, align 8
@hf_key = internal global i32 0, align 4
@ett_key = internal global i32 0, align 4
@ett_key_set = internal global i32 0, align 4
@.str.241 = private unnamed_addr constant [14 x i8] c": COSE_KeySet\00", align 1

; Function Attrs: null_pointer_is_valid sspstrong uwtable
define internal void @dissect_value_cose_key(ptr noundef %0, ptr noundef %1, ptr noundef %2, ptr noundef %3) #0 {
  %5 = alloca ptr, align 8
  %6 = alloca ptr, align 8
  %7 = alloca ptr, align 8
  %8 = alloca ptr, align 8
  %9 = alloca ptr, align 8
  %10 = alloca %struct.except_stacknode, align 8
  %11 = alloca %struct.except_cleanup, align 8
  store ptr %0, ptr %5, align 8
  store ptr %1, ptr %6, align 8
  store ptr %2, ptr %7, align 8
  store ptr %3, ptr %8, align 8
  call void @llvm.lifetime.start.p0(i64 8, ptr %9) #12
  %12 = call ptr @g_variant_new_int64(i64 noundef 1)
  store ptr %12, ptr %9, align 8
  call void @llvm.lifetime.start.p0(i64 24, ptr %10) #12
  call void @llvm.lifetime.start.p0(i64 16, ptr %11) #12
  %13 = load ptr, ptr %9, align 8
  call void @except_setup_clean(ptr noundef %10, ptr noundef %11, ptr noundef @g_variant_cleanup, ptr noundef %13)
  %14 = load ptr, ptr @table_keyparam, align 8
  %15 = load ptr, ptr %5, align 8
  %16 = load ptr, ptr %6, align 8
  %17 = load ptr, ptr %7, align 8
  %18 = load ptr, ptr %8, align 8
  %19 = load ptr, ptr %9, align 8
  call void @dissect_header_map(ptr noundef %14, ptr noundef %15, ptr noundef %16, ptr noundef %17, ptr noundef %18, ptr noundef %19)
  %20 = call ptr @except_pop()
  %21 = getelementptr inbounds nuw %struct.except_cleanup, ptr %11, i32 0, i32 0
  %22 = load ptr, ptr %21, align 8
  %23 = getelementptr inbounds nuw %struct.except_cleanup, ptr %11, i32 0, i32 1
  %24 = load ptr, ptr %23, align 8
  call void %22(ptr noundef %24)
  call void @llvm.lifetime.end.p0(i64 16, ptr %11) #12
  call void @llvm.lifetime.end.p0(i64 24, ptr %10) #12
  call void @llvm.lifetime.end.p0(i64 8, ptr %9) #12
  ret void
}

; Function Attrs: null_pointer_is_valid sspstrong uwtable
define internal i32 @dissect_cose_key_set(ptr noundef %0, ptr noundef %1, ptr noundef %2, ptr noundef %3) #0 {
  %5 = alloca ptr, align 8
  %6 = alloca ptr, align 8
  %7 = alloca ptr, align 8
  %8 = alloca ptr, align 8
  %9 = alloca i32, align 4
  %10 = alloca ptr, align 8
  %11 = alloca ptr, align 8
  %12 = alloca ptr, align 8
  %13 = alloca i64, align 8
  %14 = alloca ptr, align 8
  %15 = alloca ptr, align 8
  %16 = alloca i32, align 4
  store ptr %0, ptr %5, align 8
  store ptr %1, ptr %6, align 8
  store ptr %2, ptr %7, align 8
  store ptr %3, ptr %8, align 8
  call void @llvm.lifetime.start.p0(i64 4, ptr %9) #12
  store i32 0, ptr %9, align 4
  call void @llvm.lifetime.start.p0(i64 8, ptr %10) #12
  %17 = load ptr, ptr %6, align 8
  %18 = getelementptr inbounds nuw %struct._packet_info, ptr %17, i32 0, i32 51
  %19 = load ptr, ptr %18, align 8
  %20 = load ptr, ptr %5, align 8
  %21 = call ptr @wscbor_chunk_read(ptr noundef %19, ptr noundef %20, ptr noundef %9)
  store ptr %21, ptr %10, align 8
  %22 = load ptr, ptr %10, align 8
  %23 = call zeroext i1 @wscbor_require_array(ptr noundef %22)
  call void @llvm.lifetime.start.p0(i64 8, ptr %11) #12
  %24 = load ptr, ptr %7, align 8
  %25 = load i32, ptr @proto_cose, align 4
  %26 = load ptr, ptr %6, align 8
  %27 = load ptr, ptr %5, align 8
  %28 = load ptr, ptr %10, align 8
  %29 = call ptr @proto_tree_add_cbor_container(ptr noundef %24, i32 noundef %25, ptr noundef %26, ptr noundef %27, ptr noundef %28)
  store ptr %29, ptr %11, align 8
  %30 = load ptr, ptr %11, align 8
  call void (ptr, ptr, ...) @proto_item_append_text(ptr noundef %30, ptr noundef @.str.241)
  %31 = load ptr, ptr %6, align 8
  %32 = getelementptr inbounds nuw %struct._packet_info, ptr %31, i32 0, i32 51
  %33 = load ptr, ptr %32, align 8
  %34 = load ptr, ptr %5, align 8
  %35 = load ptr, ptr %10, align 8
  %36 = call zeroext i1 @wscbor_skip_if_errors(ptr noundef %33, ptr noundef %34, ptr noundef %9, ptr noundef %35)
  br i1 %36, label %69, label %37

37:                                               ; preds = %4
  call void @llvm.lifetime.start.p0(i64 8, ptr %12) #12
  %38 = load ptr, ptr %11, align 8
  %39 = load i32, ptr @ett_key_set, align 4
  %40 = call ptr @proto_item_add_subtree(ptr noundef %38, i32 noundef %39)
  store ptr %40, ptr %12, align 8
  call void @llvm.lifetime.start.p0(i64 8, ptr %13) #12
  store i64 0, ptr %13, align 8
  br label %41

41:                                               ; preds = %65, %37
  %42 = load i64, ptr %13, align 8
  %43 = load ptr, ptr %10, align 8
  %44 = getelementptr inbounds nuw %struct.wscbor_chunk_t, ptr %43, i32 0, i32 8
  %45 = load i64, ptr %44, align 8
  %46 = icmp ult i64 %42, %45
  br i1 %46, label %48, label %47

47:                                               ; preds = %41
  call void @llvm.lifetime.end.p0(i64 8, ptr %13) #12
  br label %68

48:                                               ; preds = %41
  call void @llvm.lifetime.start.p0(i64 8, ptr %14) #12
  %49 = load ptr, ptr %12, align 8
  %50 = load i32, ptr @hf_key, align 4
  %51 = load ptr, ptr %5, align 8
  %52 = load i32, ptr %9, align 4
  %53 = call ptr @proto_tree_add_item(ptr noundef %49, i32 noundef %50, ptr noundef %51, i32 noundef %52, i32 noundef -1, i32 noundef 0)
  store ptr %53, ptr %14, align 8
  call void @llvm.lifetime.start.p0(i64 8, ptr %15) #12
  %54 = load ptr, ptr %14, align 8
  %55 = load i32, ptr @ett_key, align 4
  %56 = call ptr @proto_item_add_subtree(ptr noundef %54, i32 noundef %55)
  store ptr %56, ptr %15, align 8
  call void @llvm.lifetime.start.p0(i64 4, ptr %16) #12
  %57 = load i32, ptr %9, align 4
  store i32 %57, ptr %16, align 4
  %58 = load ptr, ptr %5, align 8
  %59 = load ptr, ptr %6, align 8
  %60 = load ptr, ptr %15, align 8
  call void @dissect_value_cose_key(ptr noundef %58, ptr noundef %59, ptr noundef %60, ptr noundef %9)
  %61 = load ptr, ptr %14, align 8
  %62 = load i32, ptr %9, align 4
  %63 = load i32, ptr %16, align 4
  %64 = sub i32 %62, %63
  call void @proto_item_set_len(ptr noundef %61, i32 noundef %64)
  call void @llvm.lifetime.end.p0(i64 4, ptr %16) #12
  call void @llvm.lifetime.end.p0(i64 8, ptr %15) #12
  call void @llvm.lifetime.end.p0(i64 8, ptr %14) #12
  br label %65

65:                                               ; preds = %48
  %66 = load i64, ptr %13, align 8
  %67 = add i64 %66, 1
  store i64 %67, ptr %13, align 8
  br label %41, !llvm.loop !9

68:                                               ; preds = %47
  call void @llvm.lifetime.end.p0(i64 8, ptr %12) #12
  br label %69

69:                                               ; preds = %68, %4
  %70 = load ptr, ptr %11, align 8
  %71 = load i32, ptr %9, align 4
  call void @proto_item_set_len(ptr noundef %70, i32 noundef %71)
  %72 = load i32, ptr %9, align 4
  call void @llvm.lifetime.end.p0(i64 8, ptr %11) #12
  call void @llvm.lifetime.end.p0(i64 8, ptr %10) #12
  call void @llvm.lifetime.end.p0(i64 4, ptr %9) #12
  ret i32 %72
}