; Function Attrs: null_pointer_is_valid sspstrong uwtable
define internal i32 @dissect_cose_key_set(ptr noundef %0, ptr noundef %1, ptr noundef %2, ptr readnone captures(none) %3) #0 {
  %5 = alloca %struct.except_stacknode, align 8
  %6 = alloca %struct.except_cleanup, align 8
  %7 = alloca i32, align 4
  call void @llvm.lifetime.start.p0(i64 4, ptr nonnull %7) #8
  store i32 0, ptr %7, align 4
  %8 = getelementptr inbounds nuw i8, ptr %1, i64 408
  %9 = load ptr, ptr %8, align 8
  %10 = call ptr @wscbor_chunk_read(ptr noundef %9, ptr noundef %0, ptr noundef nonnull %7)
  %11 = call zeroext i1 @wscbor_require_array(ptr noundef %10)
  %12 = load i32, ptr @proto_cose, align 4
  %13 = call ptr @proto_tree_add_cbor_container(ptr noundef %2, i32 noundef %12, ptr noundef %1, ptr noundef %0, ptr noundef %10)
  call void (ptr, ptr, ...) @proto_item_append_text(ptr noundef %13, ptr noundef nonnull @.str.241)
  %14 = load ptr, ptr %8, align 8
  %15 = call zeroext i1 @wscbor_skip_if_errors(ptr noundef %14, ptr noundef %0, ptr noundef nonnull %7, ptr noundef %10)
  br i1 %15, label %.loopexit, label %16

16:                                               ; preds = %4
  %17 = load i32, ptr @ett_key_set, align 4
  %18 = call ptr @proto_item_add_subtree(ptr noundef %13, i32 noundef %17)
  %19 = getelementptr inbounds nuw i8, ptr %10, i64 48
  %20 = load i64, ptr %19, align 8
  %.not = icmp eq i64 %20, 0
  br i1 %.not, label %.loopexit, label %.lr.ph

.lr.ph:                                           ; preds = %16
  %21 = getelementptr inbounds nuw i8, ptr %6, i64 8
  br label %22

22:                                               ; preds = %.lr.ph, %22
  %.023 = phi i64 [ 0, %.lr.ph ], [ %36, %22 ]
  %23 = load i32, ptr @hf_key, align 4
  %24 = load i32, ptr %7, align 4
  %25 = call ptr @proto_tree_add_item(ptr noundef %18, i32 noundef %23, ptr noundef %0, i32 noundef %24, i32 noundef -1, i32 noundef 0)
  %26 = load i32, ptr @ett_key, align 4
  %27 = call ptr @proto_item_add_subtree(ptr noundef %25, i32 noundef %26)
  %28 = load i32, ptr %7, align 4
  %29 = call ptr @g_variant_new_int64(i64 noundef 1)
  call void @llvm.lifetime.start.p0(i64 24, ptr nonnull %5) #8
  call void @llvm.lifetime.start.p0(i64 16, ptr nonnull %6) #8
  call void @except_setup_clean(ptr noundef nonnull %5, ptr noundef nonnull %6, ptr noundef nonnull @g_variant_cleanup, ptr noundef %29)
  %30 = load ptr, ptr @table_keyparam, align 8
  call fastcc void @dissect_header_map(ptr noundef %30, ptr noundef %0, ptr noundef %1, ptr noundef %27, ptr noundef nonnull %7, ptr noundef %29)
  %31 = call ptr @except_pop()
  %32 = load ptr, ptr %6, align 8
  %33 = load ptr, ptr %21, align 8
  call void %32(ptr noundef %33)
  call void @llvm.lifetime.end.p0(i64 16, ptr nonnull %6) #8
  call void @llvm.lifetime.end.p0(i64 24, ptr nonnull %5) #8
  %34 = load i32, ptr %7, align 4
  %35 = sub i32 %34, %28
  call void @proto_item_set_len(ptr noundef %25, i32 noundef %35)
  %36 = add nuw i64 %.023, 1
  %37 = load i64, ptr %19, align 8
  %38 = icmp ult i64 %36, %37
  br i1 %38, label %22, label %.loopexit, !llvm.loop !9

.loopexit:                                        ; preds = %22, %16, %4
  %39 = load i32, ptr %7, align 4
  call void @proto_item_set_len(ptr noundef %13, i32 noundef %39)
  %40 = load i32, ptr %7, align 4
  call void @llvm.lifetime.end.p0(i64 4, ptr nonnull %7) #8
  ret i32 %40
}